
Discarded input sections

 .bss           0x0000000000000000        0x0 build/mailbox.o
 .ARM.attributes
                0x0000000000000000       0x12 build/mailbox.o
 .bss           0x0000000000000000        0x0 build/frameBuffer.o
 .ARM.attributes
                0x0000000000000000       0x12 build/frameBuffer.o
 .bss           0x0000000000000000        0x0 build/string.o
 .ARM.attributes
                0x0000000000000000       0x12 build/string.o
 .bss           0x0000000000000000        0x0 build/systemTimer.o
 .ARM.attributes
                0x0000000000000000       0x14 build/systemTimer.o
 .bss           0x0000000000000000        0x0 build/drawing.o
 .ARM.attributes
                0x0000000000000000       0x14 build/drawing.o
 .bss           0x0000000000000000        0x0 build/gpio.o
 .ARM.attributes
                0x0000000000000000       0x12 build/gpio.o
 .bss           0x0000000000000000        0x0 build/main.o
 .ARM.attributes
                0x0000000000000000       0x12 build/main.o
 .bss           0x0000000000000000        0x0 build/random.o
 .ARM.attributes
                0x0000000000000000       0x12 build/random.o
 .bss           0x0000000000000000        0x0 build/maths.o
 .ARM.attributes
                0x0000000000000000       0x14 build/maths.o
 .bss           0x0000000000000000        0x0 build/tags.o
 .ARM.attributes
                0x0000000000000000       0x14 build/tags.o

Memory Configuration

Name             Origin             Length             Attributes
*default*        0x0000000000000000 0xffffffffffffffff

Linker script and memory map

LOAD build/mailbox.o
LOAD build/frameBuffer.o
LOAD build/string.o
LOAD build/systemTimer.o
LOAD build/drawing.o
LOAD build/gpio.o
LOAD build/main.o
LOAD build/random.o
LOAD build/maths.o
LOAD build/tags.o

.init           0x0000000000008000        0x4
 *(.init)
 .init          0x0000000000008000        0x4 build/main.o
                0x0000000000008000                _start

.text           0x0000000000008004      0x4ec
 *(.text)
 .text          0x0000000000008004       0x78 build/mailbox.o
                0x0000000000008004                GetMailboxBase
                0x000000000000800c                MailboxWrite
                0x0000000000008040                MailboxRead
 .text          0x000000000000807c       0x60 build/frameBuffer.o
                0x000000000000807c                InitialiseFrameBuffer
 .text          0x00000000000080dc       0x60 build/string.o
                0x00000000000080dc                StringLength
                0x0000000000008100                ReverseString
 .text          0x000000000000813c       0x40 build/systemTimer.o
                0x000000000000813c                GetSystemTimerAddress
                0x0000000000008154                Wait
 .text          0x000000000000817c      0x1e0 build/drawing.o
                0x000000000000817c                SetForegroundColour
                0x0000000000008190                SetGraphicsAddress
                0x000000000000819c                DrawPixel
                0x00000000000081e4                DrawLine
                0x0000000000008260                DrawCharacter
                0x00000000000082cc                DrawString
 .text          0x000000000000835c       0x98 build/gpio.o
                0x000000000000835c                GetGpioBase
                0x0000000000008364                SetGpioFunction
                0x00000000000083b4                SetGpio
 .text          0x00000000000083f4       0x9c build/main.o
 .text          0x0000000000008490       0x18 build/random.o
                0x0000000000008490                Random
 .text          0x00000000000084a8       0x48 build/maths.o
                0x00000000000084a8                IntDiv
 .text          0x00000000000084f0        0x0 build/tags.o

.data           0x00000000000084f0      0x8e4
 *(.data)
 .data          0x00000000000084f0        0x0 build/mailbox.o
 .data          0x00000000000084f0       0x28 build/frameBuffer.o
                0x00000000000084f0                FrameBufferInfo
 .data          0x0000000000008518        0x0 build/string.o
 .data          0x0000000000008518        0x0 build/systemTimer.o
 *fill*         0x0000000000008518        0x8 
 .data          0x0000000000008520      0x810 build/drawing.o
 .data          0x0000000000008d30        0x0 build/gpio.o
 .data          0x0000000000008d30       0x10 build/main.o
 .data          0x0000000000008d40        0x0 build/random.o
 .data          0x0000000000008d40        0x0 build/maths.o
 .data          0x0000000000008d40       0x94 build/tags.o
                0x0000000000008d64                FindTag

/DISCARD/
 *(*)
OUTPUT(build/output.elf elf32-littlearm)
LOAD linker stubs
